target datalayout = "e-m:e-p270:32:32-p271:32:32-p272:64:64-i64:64-i128:128-f80:128-n8:16:32:64-S128"
target triple = "x86_64-pc-linux-gnu"

%struct.png_struct_def = type { [1 x %struct.__jmp_buf_tag], ptr, ptr, i64, ptr, ptr, ptr, ptr, ptr, ptr, ptr, ptr, ptr, i8, i8, i32, i32, i32, i32, %struct.z_stream_s, ptr, i32, i32, i32, i32, i32, i32, i32, i32, i32, i32, i32, i32, i32, i32, i32, i32, i32, i32, i32, i32, i32, i64, i32, i32, i32, ptr, ptr, ptr, ptr, i64, i32, i32, ptr, i16, i32, i16, i8, i8, i8, i8, i8, i8, i8, i8, i8, i8, i8, i8, i8, i8, i8, i16, i8, i32, %struct.png_color_16_struct, %struct.png_color_16_struct, ptr, i32, i32, %struct.png_xy, i32, i32, i32, i32, i32, ptr, ptr, ptr, ptr, ptr, ptr, %struct.png_color_8_struct, %struct.png_color_8_struct, ptr, %struct.png_color_16_struct, ptr, ptr, ptr, ptr, ptr, ptr, ptr, ptr, ptr, i32, i32, i64, i64, i64, i64, i32, i32, ptr, ptr, i32, [29 x i8], i32, ptr, ptr, i32, i32, ptr, i8, i8, i16, i16, ptr, i32, i8, ptr, ptr, ptr, ptr, ptr, ptr, ptr, i8, i32, i32, i32, i64, %struct.png_unknown_chunk_t, i64, ptr, i64, i32, i32, ptr, [4 x ptr] }
%struct.__jmp_buf_tag = type { [8 x i64], i32, %struct.__sigset_t }
%struct.__sigset_t = type { [16 x i64] }
%struct.z_stream_s = type { ptr, i32, i64, ptr, i32, i64, ptr, ptr, ptr, ptr, ptr, i32, i64, i64 }
%struct.png_xy = type { i32, i32, i32, i32, i32, i32, i32, i32 }
%struct.png_color_8_struct = type { i8, i8, i8, i8, i8 }
%struct.png_color_16_struct = type { i8, i16, i16, i16, i16 }
%struct.png_unknown_chunk_t = type { [5 x i8], ptr, i64, i8 }

@__const.png_write_sig.png_signature = private unnamed_addr constant [8 x i8] c"\89PNG\0D\0A\1A\0A", align 1

; Function Attrs: nounwind uwtable
define void @png_write_sig(ptr noalias noundef %0) #0 {
  %2 = alloca ptr, align 8
  %3 = alloca [8 x i8], align 1
  store ptr %0, ptr %2, align 8, !tbaa !11
  call void @llvm.lifetime.start.p0(i64 8, ptr %3) #7
  call void @llvm.memcpy.p0.p0.i64(ptr align 1 %3, ptr align 1 @__const.png_write_sig.png_signature, i64 8, i1 false)
  %4 = load ptr, ptr %2, align 8, !tbaa !11
  %5 = getelementptr inbounds nuw %struct.png_struct_def, ptr %4, i32 0, i32 147
  store i32 18, ptr %5, align 4, !tbaa !13
  %6 = load ptr, ptr %2, align 8, !tbaa !11
  %7 = load ptr, ptr %2, align 8, !tbaa !11
  %8 = getelementptr inbounds nuw %struct.png_struct_def, ptr %7, i32 0, i32 68
  %9 = load i8, ptr %8, align 1, !tbaa !27
  %10 = zext i8 %9 to i64
  %11 = getelementptr inbounds nuw [8 x i8], ptr %3, i64 0, i64 %10
  %12 = load ptr, ptr %2, align 8, !tbaa !11
  %13 = getelementptr inbounds nuw %struct.png_struct_def, ptr %12, i32 0, i32 68
  %14 = load i8, ptr %13, align 1, !tbaa !27
  %15 = zext i8 %14 to i32
  %16 = sub nsw i32 8, %15
  %17 = sext i32 %16 to i64
  call void @png_write_data(ptr noundef %6, ptr noundef %11, i64 noundef %17)
  %18 = load ptr, ptr %2, align 8, !tbaa !11
  %19 = getelementptr inbounds nuw %struct.png_struct_def, ptr %18, i32 0, i32 68
  %20 = load i8, ptr %19, align 1, !tbaa !27
  %21 = zext i8 %20 to i32
  %22 = icmp slt i32 %21, 3
  br i1 %22, label %23, label %28

23:                                               ; preds = %1
  %24 = load ptr, ptr %2, align 8, !tbaa !11
  %25 = getelementptr inbounds nuw %struct.png_struct_def, ptr %24, i32 0, i32 15
  %26 = load i32, ptr %25, align 4, !tbaa !28
  %27 = or i32 %26, 4096
  store i32 %27, ptr %25, align 4, !tbaa !28
  br label %28

28:                                               ; preds = %23, %1
  call void @llvm.lifetime.end.p0(i64 8, ptr %3) #7
  ret void
}