; Function Attrs: nounwind uwtable
define void @png_write_sig(ptr noalias noundef initializes((1196, 1200)) %0) local_unnamed_addr #1 {
  %2 = alloca [8 x i8], align 8
  call void @llvm.lifetime.start.p0(i64 8, ptr nonnull %2) #12
  store i64 727905341920923785, ptr %2, align 8
  %3 = getelementptr inbounds nuw i8, ptr %0, i64 1196
  store i32 18, ptr %3, align 4, !tbaa !6
  %4 = getelementptr inbounds nuw i8, ptr %0, i64 629
  %5 = load i8, ptr %4, align 1, !tbaa !23
  %6 = zext i8 %5 to i64
  %7 = getelementptr inbounds nuw [8 x i8], ptr %2, i64 0, i64 %6
  %8 = sub nsw i64 8, %6
  call void @png_write_data(ptr noundef %0, ptr noundef nonnull %7, i64 noundef %8) #12
  %9 = load i8, ptr %4, align 1, !tbaa !23
  %10 = icmp ult i8 %9, 3
  br i1 %10, label %11, label %15

11:                                               ; preds = %1
  %12 = getelementptr inbounds nuw i8, ptr %0, i64 300
  %13 = load i32, ptr %12, align 4, !tbaa !24
  %14 = or i32 %13, 4096
  store i32 %14, ptr %12, align 4, !tbaa !24
  br label %15

15:                                               ; preds = %11, %1
  call void @llvm.lifetime.end.p0(i64 8, ptr nonnull %2) #12
  ret void
}